; Function Attrs: nounwind uwtable
define dso_local ptr @repo_promisor_remote_find(ptr noundef %0, ptr noundef readonly %1) local_unnamed_addr #0 {
  %3 = getelementptr inbounds nuw i8, ptr %0, i64 440
  %4 = load ptr, ptr %3, align 8, !tbaa !17
  %.not.i = icmp eq ptr %4, null
  br i1 %.not.i, label %5, label %promisor_remote_init.exit

5:                                                ; preds = %2
  %6 = tail call ptr @xcalloc(i64 noundef 1, i64 noundef 16) #10
  store ptr %6, ptr %3, align 8, !tbaa !17
  %7 = getelementptr inbounds nuw i8, ptr %6, i64 8
  store ptr %6, ptr %7, align 8, !tbaa !16
  tail call void @repo_config(ptr noundef nonnull %0, ptr noundef nonnull @promisor_remote_config, ptr noundef %6) #10
  %8 = getelementptr inbounds nuw i8, ptr %0, i64 432
  %9 = load ptr, ptr %8, align 8, !tbaa !37
  %.not14.i = icmp eq ptr %9, null
  br i1 %.not14.i, label %promisor_remote_init.exit, label %.preheader.i

.preheader.i:                                     ; preds = %5, %10
  %.011.in.i.i = phi ptr [ %.011.i.i, %10 ], [ %6, %5 ]
  %.0.i.i = phi ptr [ %.011.i.i, %10 ], [ null, %5 ]
  %.011.i.i = load ptr, ptr %.011.in.i.i, align 8, !tbaa !13
  %.not.i.i = icmp eq ptr %.011.i.i, null
  br i1 %.not.i.i, label %16, label %10

10:                                               ; preds = %.preheader.i
  %11 = getelementptr inbounds nuw i8, ptr %.011.i.i, i64 16
  %12 = tail call i32 @strcmp(ptr noundef nonnull dereferenceable(1) %11, ptr noundef nonnull readonly dereferenceable(1) %9) #11
  %.not14.i.i = icmp eq i32 %12, 0
  br i1 %.not14.i.i, label %promisor_remote_lookup.exit.i, label %.preheader.i, !llvm.loop !38

promisor_remote_lookup.exit.i:                    ; preds = %10
  %13 = load ptr, ptr %.011.i.i, align 8, !tbaa !13
  %.not.i16.i = icmp eq ptr %13, null
  br i1 %.not.i16.i, label %promisor_remote_init.exit, label %14

14:                                               ; preds = %promisor_remote_lookup.exit.i
  %.not14.i17.i = icmp eq ptr %.0.i.i, null
  %..i.i = select i1 %.not14.i17.i, ptr %6, ptr %.0.i.i
  store ptr %13, ptr %..i.i, align 8, !tbaa !13
  store ptr null, ptr %.011.i.i, align 8, !tbaa !13
  %15 = load ptr, ptr %7, align 8, !tbaa !16
  store ptr %.011.i.i, ptr %15, align 8, !tbaa !13
  store ptr %.011.i.i, ptr %7, align 8, !tbaa !16
  br label %promisor_remote_init.exit

16:                                               ; preds = %.preheader.i
  %17 = tail call fastcc ptr @promisor_remote_new(ptr noundef %6, ptr noundef nonnull %9)
  br label %promisor_remote_init.exit

promisor_remote_init.exit:                        ; preds = %2, %5, %promisor_remote_lookup.exit.i, %14, %16
  %.not = icmp eq ptr %1, null
  %18 = load ptr, ptr %3, align 8, !tbaa !17
  br i1 %.not, label %19, label %.preheader

19:                                               ; preds = %promisor_remote_init.exit
  %20 = load ptr, ptr %18, align 8, !tbaa !4
  br label %promisor_remote_lookup.exit

.preheader:                                       ; preds = %promisor_remote_init.exit, %21
  %.011.in.i = phi ptr [ %.011.i, %21 ], [ %18, %promisor_remote_init.exit ]
  %.011.i = load ptr, ptr %.011.in.i, align 8, !tbaa !13
  %.not.i7 = icmp eq ptr %.011.i, null
  br i1 %.not.i7, label %promisor_remote_lookup.exit, label %21

21:                                               ; preds = %.preheader
  %22 = getelementptr inbounds nuw i8, ptr %.011.i, i64 16
  %23 = tail call i32 @strcmp(ptr noundef nonnull dereferenceable(1) %22, ptr noundef nonnull readonly dereferenceable(1) %1) #11
  %.not14.i8 = icmp eq i32 %23, 0
  br i1 %.not14.i8, label %promisor_remote_lookup.exit, label %.preheader, !llvm.loop !38

promisor_remote_lookup.exit:                      ; preds = %.preheader, %21, %19
  %.0 = phi ptr [ %20, %19 ], [ null, %.preheader ], [ %.011.i, %21 ]
  ret ptr %.0
}